target datalayout = "e-m:e-p270:32:32-p271:32:32-p272:64:64-i64:64-i128:128-f80:128-n8:16:32:64-S128"
target triple = "x86_64-pc-linux-gnu"

%struct.ossl_param_st = type { ptr, i32, ptr, i64, i64 }
%struct.TEST_ENCAPDATA = type { ptr, ptr, i64, ptr, i64, ptr, i64, ptr, i64, ptr, i64, ptr, i64, ptr, i64 }

@libctx = internal global ptr null, align 8
@opparam = internal global [2 x %struct.ossl_param_st] zeroinitializer, align 16
@.str.3 = private unnamed_addr constant [38 x i8] c"../openssl/test/evp_pkey_dhkem_test.c\00", align 1
@.str.50 = private unnamed_addr constant [2 x i8] c"1\00", align 1
@.str.74 = private unnamed_addr constant [2 x i8] c"0\00", align 1
@.str.80 = private unnamed_addr constant [40 x i8] c"EVP_PKEY_encapsulate_init(ctx, opparam)\00", align 1
@.str.83 = private unnamed_addr constant [40 x i8] c"EVP_PKEY_decapsulate_init(ctx, opparam)\00", align 1
@.str.92 = private unnamed_addr constant [6 x i8] c"%s %s\00", align 1
@.str.93 = private unnamed_addr constant [6 x i8] c"Encap\00", align 1
@.str.94 = private unnamed_addr constant [6 x i8] c"Decap\00", align 1
@.str.98 = private unnamed_addr constant [32 x i8] c"ERR_GET_REASON(ERR_get_error())\00", align 1
@.str.150 = private unnamed_addr constant [73 x i8] c"recippriv = new_raw_private_key(t->curve, t->rpriv, t->rprivlen, pub, 1)\00", align 1
@.str.151 = private unnamed_addr constant [58 x i8] c"ctx = EVP_PKEY_CTX_new_from_pkey(libctx, recippriv, NULL)\00", align 1
@.str.152 = private unnamed_addr constant [61 x i8] c"EVP_PKEY_encapsulate(ctx, enc , &enclen, secret, &secretlen)\00", align 1
@.str.153 = private unnamed_addr constant [83 x i8] c"EVP_PKEY_decapsulate(ctx, secret, &secretlen, t->expected_enc, t->expected_enclen)\00", align 1
@.str.154 = private unnamed_addr constant [19 x i8] c"PROV_R_INVALID_KEY\00", align 1

; Function Attrs: inlinehint nounwind uwtable
define internal i32 @ERR_GET_REASON(i64 noundef %0) #5 {
  %2 = alloca i32, align 4
  %3 = alloca i64, align 8
  store i64 %0, ptr %3, align 8, !tbaa !13
  %4 = load i64, ptr %3, align 8, !tbaa !13
  %5 = and i64 %4, 2147483648
  %6 = icmp ne i64 %5, 0
  br i1 %6, label %7, label %11

7:                                                ; preds = %1
  %8 = load i64, ptr %3, align 8, !tbaa !13
  %9 = and i64 %8, 2147483647
  %10 = trunc i64 %9 to i32
  store i32 %10, ptr %2, align 4
  br label %15

11:                                               ; preds = %1
  %12 = load i64, ptr %3, align 8, !tbaa !13
  %13 = and i64 %12, 8388607
  %14 = trunc i64 %13 to i32
  store i32 %14, ptr %2, align 4
  br label %15

15:                                               ; preds = %11, %7
  %16 = load i32, ptr %2, align 4
  ret i32 %16
}

; Function Attrs: nounwind uwtable
define internal i32 @test_ec_badpublic(i32 noundef %0) #0 {
  %2 = alloca i32, align 4
  %3 = alloca i32, align 4
  %4 = alloca i32, align 4
  %5 = alloca ptr, align 8
  %6 = alloca ptr, align 8
  %7 = alloca [256 x i8], align 16
  %8 = alloca [256 x i8], align 16
  %9 = alloca i64, align 8
  %10 = alloca i32, align 4
  %11 = alloca ptr, align 8
  %12 = alloca [256 x i8], align 16
  %13 = alloca i64, align 8
  %14 = alloca i32, align 4
  store i32 %0, ptr %3, align 4, !tbaa !10
  call void @llvm.lifetime.start.p0(i64 4, ptr %4) #6
  store i32 0, ptr %4, align 4, !tbaa !10
  call void @llvm.lifetime.start.p0(i64 8, ptr %5) #6
  store ptr null, ptr %5, align 8, !tbaa !17
  call void @llvm.lifetime.start.p0(i64 8, ptr %6) #6
  store ptr null, ptr %6, align 8, !tbaa !19
  call void @llvm.lifetime.start.p0(i64 256, ptr %7) #6
  call void @llvm.lifetime.start.p0(i64 256, ptr %8) #6
  call void @llvm.lifetime.start.p0(i64 8, ptr %9) #6
  store i64 256, ptr %9, align 8, !tbaa !13
  call void @llvm.lifetime.start.p0(i64 4, ptr %10) #6
  %15 = load i32, ptr %3, align 4, !tbaa !10
  %16 = and i32 %15, 1
  %17 = icmp eq i32 %16, 0
  %18 = zext i1 %17 to i32
  store i32 %18, ptr %10, align 4, !tbaa !10
  call void @llvm.lifetime.start.p0(i64 8, ptr %11) #6
  store ptr @ec_encapdata, ptr %11, align 8, !tbaa !12
  %19 = load ptr, ptr %11, align 8, !tbaa !12
  %20 = getelementptr inbounds nuw %struct.TEST_ENCAPDATA, ptr %19, i32 0, i32 0
  %21 = load ptr, ptr %20, align 8, !tbaa !21
  %22 = load i32, ptr %10, align 4, !tbaa !10
  %23 = icmp ne i32 %22, 0
  %24 = select i1 %23, ptr @.str.93, ptr @.str.94
  call void (ptr, ...) @test_note(ptr noundef @.str.92, ptr noundef %21, ptr noundef %24)
  %25 = getelementptr inbounds [256 x i8], ptr %8, i64 0, i64 0
  store i8 0, ptr %25, align 16, !tbaa !47
  %26 = load ptr, ptr %11, align 8, !tbaa !12
  %27 = getelementptr inbounds nuw %struct.TEST_ENCAPDATA, ptr %26, i32 0, i32 0
  %28 = load ptr, ptr %27, align 8, !tbaa !21
  %29 = load ptr, ptr %11, align 8, !tbaa !12
  %30 = getelementptr inbounds nuw %struct.TEST_ENCAPDATA, ptr %29, i32 0, i32 5
  %31 = load ptr, ptr %30, align 8, !tbaa !29
  %32 = load ptr, ptr %11, align 8, !tbaa !12
  %33 = getelementptr inbounds nuw %struct.TEST_ENCAPDATA, ptr %32, i32 0, i32 6
  %34 = load i64, ptr %33, align 8, !tbaa !30
  %35 = getelementptr inbounds [256 x i8], ptr %8, i64 0, i64 0
  %36 = call ptr @new_raw_private_key(ptr noundef %28, ptr noundef %31, i64 noundef %34, ptr noundef %35, i64 noundef 1)
  store ptr %36, ptr %5, align 8, !tbaa !17
  %37 = call i32 @test_ptr(ptr noundef @.str.3, i32 noundef 613, ptr noundef @.str.150, ptr noundef %36)
  %38 = icmp ne i32 %37, 0
  br i1 %38, label %40, label %39

39:                                               ; preds = %1
  br label %95

40:                                               ; preds = %1
  %41 = load ptr, ptr @libctx, align 8, !tbaa !15
  %42 = load ptr, ptr %5, align 8, !tbaa !17
  %43 = call ptr @EVP_PKEY_CTX_new_from_pkey(ptr noundef %41, ptr noundef %42, ptr noundef null)
  store ptr %43, ptr %6, align 8, !tbaa !19
  %44 = call i32 @test_ptr(ptr noundef @.str.3, i32 noundef 616, ptr noundef @.str.151, ptr noundef %43)
  %45 = icmp ne i32 %44, 0
  br i1 %45, label %47, label %46

46:                                               ; preds = %40
  br label %95

47:                                               ; preds = %40
  %48 = load i32, ptr %10, align 4, !tbaa !10
  %49 = icmp ne i32 %48, 0
  br i1 %49, label %50, label %68

50:                                               ; preds = %47
  call void @llvm.lifetime.start.p0(i64 256, ptr %12) #6
  call void @llvm.lifetime.start.p0(i64 8, ptr %13) #6
  store i64 256, ptr %13, align 8, !tbaa !13
  %51 = load ptr, ptr %6, align 8, !tbaa !19
  %52 = call i32 @EVP_PKEY_encapsulate_init(ptr noundef %51, ptr noundef @opparam)
  %53 = call i32 @test_int_eq(ptr noundef @.str.3, i32 noundef 623, ptr noundef @.str.80, ptr noundef @.str.50, i32 noundef %52, i32 noundef 1)
  %54 = icmp ne i32 %53, 0
  br i1 %54, label %56, label %55

55:                                               ; preds = %50
  store i32 2, ptr %14, align 4
  br label %65

56:                                               ; preds = %50
  %57 = load ptr, ptr %6, align 8, !tbaa !19
  %58 = getelementptr inbounds [256 x i8], ptr %12, i64 0, i64 0
  %59 = getelementptr inbounds [256 x i8], ptr %7, i64 0, i64 0
  %60 = call i32 @EVP_PKEY_encapsulate(ptr noundef %57, ptr noundef %58, ptr noundef %13, ptr noundef %59, ptr noundef %9)
  %61 = call i32 @test_int_eq(ptr noundef @.str.3, i32 noundef 626, ptr noundef @.str.152, ptr noundef @.str.74, i32 noundef %60, i32 noundef 0)
  %62 = icmp ne i32 %61, 0
  br i1 %62, label %64, label %63

63:                                               ; preds = %56
  store i32 2, ptr %14, align 4
  br label %65

64:                                               ; preds = %56
  store i32 0, ptr %14, align 4
  br label %65

65:                                               ; preds = %63, %55, %64
  call void @llvm.lifetime.end.p0(i64 8, ptr %13) #6
  call void @llvm.lifetime.end.p0(i64 256, ptr %12) #6
  %66 = load i32, ptr %14, align 4
  switch i32 %66, label %99 [
    i32 0, label %67
    i32 2, label %95
  ]

67:                                               ; preds = %65
  br label %88

68:                                               ; preds = %47
  %69 = load ptr, ptr %6, align 8, !tbaa !19
  %70 = call i32 @EVP_PKEY_decapsulate_init(ptr noundef %69, ptr noundef @opparam)
  %71 = call i32 @test_int_eq(ptr noundef @.str.3, i32 noundef 629, ptr noundef @.str.83, ptr noundef @.str.50, i32 noundef %70, i32 noundef 1)
  %72 = icmp ne i32 %71, 0
  br i1 %72, label %74, label %73

73:                                               ; preds = %68
  br label %95

74:                                               ; preds = %68
  %75 = load ptr, ptr %6, align 8, !tbaa !19
  %76 = getelementptr inbounds [256 x i8], ptr %7, i64 0, i64 0
  %77 = load ptr, ptr %11, align 8, !tbaa !12
  %78 = getelementptr inbounds nuw %struct.TEST_ENCAPDATA, ptr %77, i32 0, i32 7
  %79 = load ptr, ptr %78, align 8, !tbaa !35
  %80 = load ptr, ptr %11, align 8, !tbaa !12
  %81 = getelementptr inbounds nuw %struct.TEST_ENCAPDATA, ptr %80, i32 0, i32 8
  %82 = load i64, ptr %81, align 8, !tbaa !36
  %83 = call i32 @EVP_PKEY_decapsulate(ptr noundef %75, ptr noundef %76, ptr noundef %9, ptr noundef %79, i64 noundef %82)
  %84 = call i32 @test_int_eq(ptr noundef @.str.3, i32 noundef 634, ptr noundef @.str.153, ptr noundef @.str.74, i32 noundef %83, i32 noundef 0)
  %85 = icmp ne i32 %84, 0
  br i1 %85, label %87, label %86

86:                                               ; preds = %74
  br label %95

87:                                               ; preds = %74
  br label %88

88:                                               ; preds = %87, %67
  %89 = call i64 @ERR_get_error()
  %90 = call i32 @ERR_GET_REASON(i64 noundef %89)
  %91 = call i32 @test_int_eq(ptr noundef @.str.3, i32 noundef 637, ptr noundef @.str.98, ptr noundef @.str.154, i32 noundef %90, i32 noundef 158)
  %92 = icmp ne i32 %91, 0
  br i1 %92, label %94, label %93

93:                                               ; preds = %88
  br label %95

94:                                               ; preds = %88
  store i32 1, ptr %4, align 4, !tbaa !10
  br label %95

95:                                               ; preds = %94, %65, %93, %86, %73, %46, %39
  %96 = load ptr, ptr %5, align 8, !tbaa !17
  call void @EVP_PKEY_free(ptr noundef %96)
  %97 = load ptr, ptr %6, align 8, !tbaa !19
  call void @EVP_PKEY_CTX_free(ptr noundef %97)
  %98 = load i32, ptr %4, align 4, !tbaa !10
  store i32 %98, ptr %2, align 4
  store i32 1, ptr %14, align 4
  br label %99

99:                                               ; preds = %95, %65
  call void @llvm.lifetime.end.p0(i64 8, ptr %11) #6
  call void @llvm.lifetime.end.p0(i64 4, ptr %10) #6
  call void @llvm.lifetime.end.p0(i64 8, ptr %9) #6
  call void @llvm.lifetime.end.p0(i64 256, ptr %8) #6
  call void @llvm.lifetime.end.p0(i64 256, ptr %7) #6
  call void @llvm.lifetime.end.p0(i64 8, ptr %6) #6
  call void @llvm.lifetime.end.p0(i64 8, ptr %5) #6
  call void @llvm.lifetime.end.p0(i64 4, ptr %4) #6
  %100 = load i32, ptr %2, align 4
  ret i32 %100
}