; Function Attrs: nounwind uwtable
define internal range(i32 0, 2) i32 @test_ec_badpublic(i32 noundef %0) #0 {
  %2 = alloca [256 x i8], align 16
  %3 = alloca [256 x i8], align 16
  %4 = alloca i64, align 8
  %5 = alloca [256 x i8], align 16
  %6 = alloca i64, align 8
  call void @llvm.lifetime.start.p0(i64 256, ptr nonnull %2) #5
  call void @llvm.lifetime.start.p0(i64 256, ptr nonnull %3) #5
  call void @llvm.lifetime.start.p0(i64 8, ptr nonnull %4) #5
  store i64 256, ptr %4, align 8, !tbaa !13
  %7 = and i32 %0, 1
  %8 = icmp eq i32 %7, 0
  %9 = select i1 %8, ptr @.str.93, ptr @.str.94
  tail call void (ptr, ...) @test_note(ptr noundef nonnull @.str.92, ptr noundef nonnull @.str.6, ptr noundef nonnull %9) #5
  store i8 0, ptr %3, align 16, !tbaa !49
  %10 = call fastcc ptr @new_raw_private_key(ptr noundef nonnull @.str.6, ptr noundef nonnull @p256_ikmr_priv, i64 noundef 32, ptr noundef nonnull %3, i64 noundef 1)
  %11 = call i32 @test_ptr(ptr noundef nonnull @.str.3, i32 noundef 613, ptr noundef nonnull @.str.150, ptr noundef %10) #5
  %.not = icmp eq i32 %11, 0
  br i1 %.not, label %35, label %12

12:                                               ; preds = %1
  %13 = load ptr, ptr @libctx, align 8, !tbaa !15
  %14 = call ptr @EVP_PKEY_CTX_new_from_pkey(ptr noundef %13, ptr noundef %10, ptr noundef null) #5
  %15 = call i32 @test_ptr(ptr noundef nonnull @.str.3, i32 noundef 616, ptr noundef nonnull @.str.151, ptr noundef %14) #5
  %.not21 = icmp eq i32 %15, 0
  br i1 %.not21, label %35, label %16

16:                                               ; preds = %12
  br i1 %8, label %17, label %24

17:                                               ; preds = %16
  call void @llvm.lifetime.start.p0(i64 256, ptr nonnull %5) #5
  call void @llvm.lifetime.start.p0(i64 8, ptr nonnull %6) #5
  store i64 256, ptr %6, align 8, !tbaa !13
  %18 = call i32 @EVP_PKEY_encapsulate_init(ptr noundef %14, ptr noundef nonnull @opparam) #5
  %19 = call i32 @test_int_eq(ptr noundef nonnull @.str.3, i32 noundef 623, ptr noundef nonnull @.str.80, ptr noundef nonnull @.str.50, i32 noundef %18, i32 noundef 1) #5
  %.not24 = icmp eq i32 %19, 0
  br i1 %.not24, label %.thread, label %20

20:                                               ; preds = %17
  %21 = call i32 @EVP_PKEY_encapsulate(ptr noundef %14, ptr noundef nonnull %5, ptr noundef nonnull %6, ptr noundef nonnull %2, ptr noundef nonnull %4) #5
  %22 = call i32 @test_int_eq(ptr noundef nonnull @.str.3, i32 noundef 626, ptr noundef nonnull @.str.152, ptr noundef nonnull @.str.74, i32 noundef %21, i32 noundef 0) #5
  %.not25 = icmp eq i32 %22, 0
  br i1 %.not25, label %.thread, label %23

.thread:                                          ; preds = %17, %20
  call void @llvm.lifetime.end.p0(i64 8, ptr nonnull %6) #5
  call void @llvm.lifetime.end.p0(i64 256, ptr nonnull %5) #5
  br label %35

23:                                               ; preds = %20
  call void @llvm.lifetime.end.p0(i64 8, ptr nonnull %6) #5
  call void @llvm.lifetime.end.p0(i64 256, ptr nonnull %5) #5
  br label %30

24:                                               ; preds = %16
  %25 = call i32 @EVP_PKEY_decapsulate_init(ptr noundef %14, ptr noundef nonnull @opparam) #5
  %26 = call i32 @test_int_eq(ptr noundef nonnull @.str.3, i32 noundef 629, ptr noundef nonnull @.str.83, ptr noundef nonnull @.str.50, i32 noundef %25, i32 noundef 1) #5
  %.not22 = icmp eq i32 %26, 0
  br i1 %.not22, label %35, label %27

27:                                               ; preds = %24
  %28 = call i32 @EVP_PKEY_decapsulate(ptr noundef %14, ptr noundef nonnull %2, ptr noundef nonnull %4, ptr noundef nonnull @p256_expected_enc, i64 noundef 65) #5
  %29 = call i32 @test_int_eq(ptr noundef nonnull @.str.3, i32 noundef 634, ptr noundef nonnull @.str.153, ptr noundef nonnull @.str.74, i32 noundef %28, i32 noundef 0) #5
  %.not23 = icmp eq i32 %29, 0
  br i1 %.not23, label %35, label %30

30:                                               ; preds = %23, %27
  %31 = call i64 @ERR_get_error() #5
  %32 = and i64 %31, 2147483648
  %.not.i = icmp eq i64 %32, 0
  %33 = trunc i64 %31 to i32
  %.0.v.i = select i1 %.not.i, i32 8388607, i32 2147483647
  %.0.i = and i32 %.0.v.i, %33
  %34 = call i32 @test_int_eq(ptr noundef nonnull @.str.3, i32 noundef 637, ptr noundef nonnull @.str.98, ptr noundef nonnull @.str.154, i32 noundef %.0.i, i32 noundef 158) #5
  %.not26 = icmp ne i32 %34, 0
  %spec.select = zext i1 %.not26 to i32
  br label %35

35:                                               ; preds = %.thread, %30, %27, %24, %12, %1
  %.020 = phi ptr [ %14, %27 ], [ %14, %24 ], [ %14, %12 ], [ null, %1 ], [ %14, %30 ], [ %14, %.thread ]
  %.019 = phi i32 [ 0, %27 ], [ 0, %24 ], [ 0, %12 ], [ 0, %1 ], [ %spec.select, %30 ], [ 0, %.thread ]
  call void @EVP_PKEY_free(ptr noundef %10) #5
  call void @EVP_PKEY_CTX_free(ptr noundef %.020) #5
  call void @llvm.lifetime.end.p0(i64 8, ptr nonnull %4) #5
  call void @llvm.lifetime.end.p0(i64 256, ptr nonnull %3) #5
  call void @llvm.lifetime.end.p0(i64 256, ptr nonnull %2) #5
  ret i32 %.019
}